(dp1
S'output'
p2
S"<type 'exceptions.TypeError'> __call__() takes at least 2 arguments (1 given)"
p3
sS'layer'
p4
S'/home/samfisher/iiith/Semester 2/web2py/applications/Project/controllers/default.py'
p5
sS'code'
p6
S'# -*- coding: utf-8 -*-\n# this file is released under public domain and you can use without limitations\n\n#########################################################################\n## This is a samples controller\n## - index is the default action of any application\n## - user is required for authentication and authorization\n## - download is for downloading files uploaded in the db (does streaming)\n## - call exposes all registered services (none by default)\n#########################################################################\n\n\n\ndef index():\n\tif auth.user:\n\t\tif auth.user.r_type==\'customer\':\n\t\t\tprint \'customer incoming\'\n\t\t\tredirect(URL(r=request,f=\'home\'))\n\t\telif auth.user.r_type==\'agent\':\n\t\t\tprint \'agent incoming\'\n\t\t\tredirect(URL(r=request,f=\'agent_home\'))\n\t\telif auth.user.r_type==\'manager\':\n\t\t\tprint \'manager incoming\'\n\t\t\tredirect(URL(r=request,f=\'manager_home\'))\n\telse:\n\t\tredirect(URL(r=request,f=\'home\'))\n    \treturn dict()\n\n\n#manager_home\ndef manager_home():\n\tresponse.flash = T("Welcome manager!!!") \n\ta=db(db.company.mgr_id==auth.user.id).select()\n\tif len(a)==0:\n\t\tredirect(URL(\'AddCompany\'))\n\t\n\treturn dict()\ndef AddCompany():\n\tresponse.flash=T("Add Company Details")\n\tdb.company.mgr_id.writable=False\n\tdb.company.mgr_id.readable=False\t\n\tform=SQLFORM.factory(db.company)\n\tif form.process().accepted:\n\t\ta=db.BuyInsurance._filter_fields(form.vars)\n\t\ta[\'mgr_id\']=auth.user.id\n\t\tdb.company.insert(**a)\n\t\tredirect(URL(\'index\'))\n\n\treturn dict(form=form)\n\ndef add_new_policy():\n\treturn dict()\n\ndef add_pol():\n\tinp=int(request.args(0))\n\tdb.Insurance.max_cover.requires=IS_INT_IN_RANGE(0,10000000)\n\tdb.Insurance.min_cover.requires=IS_INT_IN_RANGE(0,10000000)\n\tdb.Insurance.type_policy.readable=False\n\tdb.Insurance.type_policy.writable=False\n\tdb.Insurance.company_id.writable=False\n\tdb.Insurance.company_id.readable=False\n\t\n\tdb.Insurance.heart.writable=False\n\tdb.Insurance.min_age.writable=False\n\tdb.Insurance.max_age.writable=False\n\tdb.Insurance.target_income.writable=False\n\tdb.Insurance.marital_status.writable=False\n\tdb.Insurance.cancer.writable=False\n\tdb.Insurance.tobbaco.writable=False\n\tdb.Insurance.critical.writable=False\n\tdb.Insurance.min_members.writable=False\n\tdb.Insurance.max_members.writable=False\n\tdb.Insurance.year_build.writable=False\n\tdb.Insurance.no_of_wheels.writable=False\n\tdb.Insurance.min_price.writable=False\n\tdb.Insurance.max_price.writable=False\n\tdb.Insurance.min_year.writable=False\n\tdb.Insurance.travel_type.writable=False\n\tdb.Insurance.max_limit.writable=False\n\t\n\t\n\t\n\tdb.Insurance.heart.readable=False\n\tdb.Insurance.min_age.readable=False\n\tdb.Insurance.max_age.readable=False\n\tdb.Insurance.min_year.readable=False\n\tdb.Insurance.target_income.readable=False\n\tdb.Insurance.marital_status.readable=False\n\tdb.Insurance.cancer.readable=False\n\tdb.Insurance.tobbaco.readable=False\n\tdb.Insurance.critical.readable=False\n\tdb.Insurance.min_members.readable=False\n\tdb.Insurance.max_members.readable=False\n\tdb.Insurance.year_build.readable=False\n\tdb.Insurance.no_of_wheels.readable=False\n\tdb.Insurance.min_price.readable=False\n\tdb.Insurance.max_price.readable=False\n\tdb.Insurance.travel_type.readable=False\n\tdb.Insurance.max_limit.readable=False\n\t\n\tprint inp\t\n\tif inp==1:\n\t\t#term insurance\n\t\tprint \'enter\'\n\t\tdb.Insurance.min_age.writable=True\n\t\tdb.Insurance.max_age.writable=True\n\t\tdb.Insurance.target_income.writable=True\n\t\tdb.Insurance.marital_status.writable=True\n\t\tdb.Insurance.min_age.readable=True\n\t\tdb.Insurance.max_age.readable=True\n\t\tdb.Insurance.target_income.readable=True\n\t\tdb.Insurance.marital_status.readable=True\n\telif inp==2:\n\t\t#retirement plans\n\t\tdb.Insurance.min_duration.writable=False\n\t\tdb.Insurance.max_duration.writable=False\n\t\tdb.Insurance.min_duration.readable=False\n\t\tdb.Insurance.max_duration.readable=False\n\t\tdb.Insurance.min_age.writable=True\n\t\tdb.Insurance.max_age.writable=True\n\t\tdb.Insurance.target_income.writable=True\n\t\tdb.Insurance.marital_status.writable=True\n\t\tdb.Insurance.min_age.readable=True\n\t\tdb.Insurance.max_age.readable=True\n\t\tdb.Insurance.target_income.readable=True\n\t\tdb.Insurance.marital_status.readable=True\n\telif inp==3:\n\t\t#child plans\n\t\tdb.Insurance.target_income.writable=True\n\t\tdb.Insurance.target_income.readable=True\n\t\tdb.Insurance.max_age.writable=True\n\t\tdb.Insurance.max_age.readable=True\n\telif inp==4:\n\t\t#Health plan\n\t\tdb.Insurance.heart.writable=True\n\t\tdb.Insurance.min_age.writable=True\n\t\tdb.Insurance.max_age.writable=True\n\t\tdb.Insurance.target_income.writable=True\n\t\tdb.Insurance.marital_status.writable=True\n\t\tdb.Insurance.cancer.writable=True\n\t\tdb.Insurance.tobbaco.writable=True\n\t\tdb.Insurance.critical.writable=True\n\t\tdb.Insurance.heart.readable=True\n\t\tdb.Insurance.min_age.readable=True\n\t\tdb.Insurance.max_age.readable=True\n\t\tdb.Insurance.target_income.readable=True\n\t\tdb.Insurance.marital_status.readable=True\n\t\tdb.Insurance.cancer.readable=True\n\t\tdb.Insurance.tobbaco.readable=True\n\t\tdb.Insurance.critical.readable=True\n\telif inp==5:\n\t\t#senior\n\t\tdb.Insurance.heart.writable=True\n\t\tdb.Insurance.min_age.writable=True\n\t\tdb.Insurance.max_age.writable=True\n\t\tdb.Insurance.target_income.writable=True\n\t\tdb.Insurance.marital_status.writable=True\n\t\tdb.Insurance.cancer.writable=True\n\t\tdb.Insurance.tobbaco.writable=True\n\t\tdb.Insurance.critical.writable=True\n\t\tdb.Insurance.heart.readable=True\n\t\tdb.Insurance.min_age.readable=True\n\t\tdb.Insurance.max_age.readable=True\n\t\tdb.Insurance.target_income.readable=True\n\t\tdb.Insurance.marital_status.readable=True\n\t\tdb.Insurance.cancer.readable=True\n\t\tdb.Insurance.tobbaco.readable=True\n\t\tdb.Insurance.critical.readable=True\n\telif inp==6:\n\t\t#family plans\n\t\tdb.Insurance.min_members.writable=True\n\t\tdb.Insurance.max_members.writable=True\n\t\tdb.Insurance.min_members.readable=True\n\t\tdb.Insurance.max_members.readable=True\n\t\tdb.Insurance.target_income.writable=True\n\t\tdb.Insurance.target_income.readable=True\n\n\n\telif inp==7:\n\t\t#house\n\t\tdb.Insurance.target_income.writable=True\n\t\tdb.Insurance.target_income.readable=True\n\t\tdb.Insurance.year_build.writable=True\n\t\tdb.Insurance.year_build.readable=True\n\n\telif inp==8:\n\t\t#motor insuranace\n\t\tdb.Insurance.min_duration.writable=False\n\t\tdb.Insurance.max_duration.writable=False\n\t\tdb.Insurance.min_duration.readable=False\n\t\tdb.Insurance.max_duration.readable=False\n\t\tdb.Insurance.no_of_wheels.writable=True\n\t\tdb.Insurance.min_price.writable=True\n\t\tdb.Insurance.max_price.writable=True\n\t\tdb.Insurance.no_of_wheels.readable=True\n\t\tdb.Insurance.min_price.readable=True\n\t\tdb.Insurance.max_price.readable=True\n\t\tdb.Insurance.target_income.writable=True\n\t\tdb.Insurance.target_income.readable=True\n\n\telif inp==9:\n\t\t#travel plans\n\t\tdb.Insurance.travel_type.writable=True\n\t\tdb.Insurance.max_limit.writable=True\n\t\tdb.Insurance.target_income.writable=True\n\t\tdb.Insurance.marital_status.writable=True\n\t\tdb.Insurance.travel_type.readable=True\n\t\tdb.Insurance.max_limit.readable=True\n\t\tdb.Insurance.target_income.readable=True\n\t\tdb.Insurance.marital_status.readable=True\n\tform=SQLFORM.factory(db.Insurance)\n\tif form.process().accepted:\n\t\ta=db.Insurance._filter_fields(form.vars)\n\t\ta[\'type_policy\']=inp\n\t\tsel = db(db.company.mgr_id==auth.user.id).select()[0]\n\t\ta[\'company_id\']=sel[\'id\']\n\t\tdb.Insurance.insert(**a)\t\n\t\tredirect(URL(\'home\'))\n\treturn dict(form=form)\n#agent_home\ndef agent_home():\n\tresponse.flash = T("Welcome agent!!!") \n\treturn dict()\n#main_home\ndef home():\n\tif auth.user:\n\t\tif auth.user.r_type!=\'customer\':\n\t\t\tredirect(URL(\'index\'))\n\treturn dict()\n\n\n\ndef user():\n    """\n    exposes:\n    http://..../[app]/default/user/login\n    http://..../[app]/default/user/logout\n    http://..../[app]/default/user/register\n    http://..../[app]/default/user/profile\n    http://..../[app]/default/user/retrieve_password\n    http://..../[app]/default/user/change_password\n    use @auth.requires_login()\n        @auth.requires_membership(\'group name\')\n        @auth.requires_permission(\'read\',\'table name\',record_id)\n    to decorate functions that need access control\n    """\n    return dict(form=auth())\n\n\ndef download():\n    """\n    allows downloading of uploaded files\n    http://..../[app]/default/download/[filename]\n    """\n    return response.download(request, db)\n\n\ndef call():\n    """\n    exposes services. for example:\n    http://..../[app]/default/call/jsonrpc\n    decorate with @services.jsonrpc the functions to expose\n    supports xml, json, xmlrpc, jsonrpc, amfrpc, rss, csv\n    """\n    return service()\n\n\n@auth.requires_signature()\ndef data():\n    """\n    http://..../[app]/default/data/tables\n    http://..../[app]/default/data/create/[table]\n    http://..../[app]/default/data/read/[table]/[id]\n    http://..../[app]/default/data/update/[table]/[id]\n    http://..../[app]/default/data/delete/[table]/[id]\n    http://..../[app]/default/data/select/[table]\n    http://..../[app]/default/data/search/[table]\n    but URLs must be signed, i.e. linked with\n      A(\'table\',_href=URL(\'data/tables\',user_signature=True))\n    or with the signed load operator\n      LOAD(\'default\',\'data.load\',args=\'tables\',ajax=True,user_signature=True)\n    """\n    return dict(form=crud())\n\ndef life_policy_details():\n\treturn dict()\n\n\t\ndef term_policy():\n\n\tterm_policy=db(db.Insurance.type_policy==1).select()\n\n\treturn dict(t=term_policy)\n\ndef retirement_policy():\n\n\tretirement_policy=db(db.Insurance.type_policy==2).select()\n\n\treturn dict(t=retirement_policy)\n\ndef child_policy():\n\n\tchild_policy=db(db.Insurance.type_policy==3).select()\n\n\treturn dict(t=child_policy)\n\n\n\ndef health_policy_details():\n\treturn dict()\n\n\ndef health_policy():\n\n\thealth_policy=db(db.Insurance.type_policy==4).select()\n\n\treturn dict(t=health_policy)\n\t\ndef seniorhealth_policy():\n\n\tseniorhealth_policy=db(db.Insurance.type_policy==5).select()\n\n\treturn dict(t=seniorhealth_policy)\n\t\ndef family_policy():\n\n\tfamily_policy=db(db.Insurance.type_policy==6).select()\n\n\treturn dict(t=family_policy)\n\t\n\n\ndef other_policy_details():\n\treturn dict()\n\n\ndef home_policy():\n\n\thome_policy=db(db.Insurance.type_policy==7).select()\n\t\n\treturn dict(t=home_policy)\n\ndef motor_policy():\n\n\tmotor_policy=db(db.Insurance.type_policy==8).select()\n\t\n\treturn dict(t=motor_policy)\n\ndef travel_policy():\n\n\ttravel_policy=db(db.Insurance.type_policy==9).select()\n\t\n\treturn dict(t=travel_policy)\n@auth.requires_login()\ndef buy_policy():\n\trID=int(request.args(0))\n\tID=int(request.args(1))\n\tsel=db(db.Insurance.id==ID).select()[0]\n\tID=rID\n\tdb.BuyInsurance.cover.requires=IS_INT_IN_RANGE(sel[\'min_cover\'],sel[\'max_cover\'])\n\tdb.BuyInsurance.duration.requires=IS_INT_IN_RANGE(sel[\'min_duration\'],sel[\'max_duration\'])\n\tdb.BuyInsurance.age.requires=IS_INT_IN_RANGE(sel[\'min_age\'],sel[\'max_age\'])\n\tdb.BuyInsurance.premium.requires=IS_INT_IN_RANGE(10,10000)\n\tdb.BuyInsurance.company_id.writable=False\n\tdb.BuyInsurance.user_id.writable=False\n\tdb.BuyInsurance.type_policy.writable=False\n\tdb.BuyInsurance.name.writable=False\n\tdb.BuyInsurance.logo.writable=False\n\tdb.BuyInsurance.policy_description.writable=False\n\tdb.BuyInsurance.extra_benefits.writable=False\n\tdb.BuyInsurance.heart.writable=False\n\tdb.BuyInsurance.cancer.writable=False\n\tdb.BuyInsurance.tobbaco.writable=False\n\tdb.BuyInsurance.critical.writable=False\n\tdb.BuyInsurance.members.writable=False\n\tdb.BuyInsurance.year_build.writable=False\n\tdb.BuyInsurance.no_of_wheels.writable=False\n\tdb.BuyInsurance.approve.writable=False\n\tdb.BuyInsurance.price.writable=False\n\tdb.BuyInsurance.travel_type.writable=False\n\t\n\tdb.BuyInsurance.company_id.readable=False\n\tdb.BuyInsurance.approve.readable=False\n\tdb.BuyInsurance.user_id.readable=False\n\tdb.BuyInsurance.type_policy.readable=False\n\tdb.BuyInsurance.name.readable=False\n\tdb.BuyInsurance.logo.readable=False\n\tdb.BuyInsurance.policy_description.readable=False\n\tdb.BuyInsurance.extra_benefits.readable=False\n\tdb.BuyInsurance.heart.readable=False\n\tdb.BuyInsurance.cancer.readable=False\n\tdb.BuyInsurance.tobbaco.readable=False\n\tdb.BuyInsurance.critical.readable=False\n\tdb.BuyInsurance.members.readable=False\n\tdb.BuyInsurance.year_build.readable=False\n\tdb.BuyInsurance.no_of_wheels.readable=False\n\tdb.BuyInsurance.price.readable=False\n\tdb.BuyInsurance.travel_type.readable=False\t\n\tif ID==1 or ID==2 or ID==3:\n\t\ta=1\n\n\t\t\n\telif ID==4 or ID==5:\n\t\tdb.BuyInsurance.heart.readable=True\n\t\tdb.BuyInsurance.cancer.readable=True\n\t\tdb.BuyInsurance.tobbaco.readable=True\n\t\tdb.BuyInsurance.critical.readable=True\n\t\t\n\t\tdb.BuyInsurance.heart.writable=True\n\t\tdb.BuyInsurance.cancer.writable=True\n\t\tdb.BuyInsurance.tobbaco.writable=True\n\t\tdb.BuyInsurance.critical.writable=True\n\t\t\n\telif ID==6:\n\t\t\n\t\tdb.BuyInsurance.members.readable=True\n\t\tdb.BuyInsurance.members.writable=True\n\n\telif ID==7:\n\t\t\n\t\tdb.BuyInsurance.year_build.readable=True\n\t\tdb.BuyInsurance.year_build.writable=True\n\n\telif ID==8:\n\t\t\n\t\tdb.BuyInsurance.no_of_wheels.readable=True\n\t\tdb.BuyInsurance.price.readable=True\n\t\tdb.BuyInsurance.no_of_wheels.writable=True\n\t\tdb.BuyInsurance.price.writable=True\n\n\telif ID==9:\n\t\n\t\tdb.BuyInsurance.travel_type.writable=True\n\t\tdb.BuyInsurance.travel_type.readable=True\n\t\tdb.BuyInsurance.duration.label=\'Travel Duration\'\n\tform=SQLFORM.factory(db.BuyInsurance)\n\tif form.process().accepted:\n\t\ta=db.BuyInsurance._filter_fields(form.vars)\n\t\ta[\'user_id\']=auth.user.id\n\t\ta[\'type_policy\']=sel[\'type_policy\']\n\t\ta[\'company_id\']=sel[\'company_id\']\n\t\ta[\'name\']=sel[\'name\']\n\t\ta[\'logo\']=sel[\'logo\']\n\t\ta[\'policy_description\']=sel[\'policy_description\']\n\t\tprint a\n\t\tdb.BuyInsurance.insert(**a)\t\n\t\tredirect(URL(\'home\'))\n\treturn dict(form=form)\ndef FilterPolicy():\n\ta=[]\n\tp=db(db.company.id>0).select()\n\tfor i in range(len(p)):\n\t\ta.append(p[i][\'name\'])\n\ta.append(\'All\')\n\tform=SQLFORM.factory(\n\t\t\tField(\'Type\',requires=IS_IN_SET((\'Term Insurance\',\'Retirement Plan\',\'Child Plan\',\'Health Insurance\',\'Senior Citizen\',\'Family Medicalim Insurance\',\'Home Insurance\',\'Automobile Insurance\',\'Travel Insurance\'))),\n\t\t\tField(\'Duration\',\'integer\'),\n\t\t\tField(\'Company\',\'string\',requires=IS_IN_SET(a),default=\'All\'),\n\t\t\tField(\'Age\',\'integer\'),\n\t\t\tField(\'Cover\',\'integer\'),\n\t\t\tField(\'Income\',\'integer\',requires=IS_IN_SET((\'upto 3 lakhs\',\'3-5 lakhs\',\'5-10 lakhs\',\'10+ lakhs\',\'None\')),default=\'None\'))\n\tif form.process().accepted:\n\t\tprint form.vars\n\t\t\n\t\tredirect(URL(r=request,f=\'ViewFilter\',args=(form.vars.Type,form.vars.Duration,form.vars.Company,form.vars.age,form.vars.cover,form.vars.Income)))\n\treturn dict(form=form)\ndef ViewFilter():\n\ta=list(request.args())\n\tprint a\n\treturn dict(a=a)\n\nresponse._vars=response._caller(ViewFilter)\n'
p7
sS'snapshot'
p8
(dp9
S'exception'
p10
(dp11
S'__hash__'
p12
S"<method-wrapper '__hash__' of exceptions.TypeError object>"
p13
sS'__setattr__'
p14
S"<method-wrapper '__setattr__' of exceptions.TypeError object>"
p15
sS'__reduce_ex__'
p16
S'<built-in method __reduce_ex__ of exceptions.TypeError object>'
p17
sS'__getslice__'
p18
S"<method-wrapper '__getslice__' of exceptions.TypeError object>"
p19
sS'__getitem__'
p20
S"<method-wrapper '__getitem__' of exceptions.TypeError object>"
p21
sS'__setstate__'
p22
S'<built-in method __setstate__ of exceptions.TypeError object>'
p23
sS'args'
p24
S"('__call__() takes at least 2 arguments (1 given)',)"
p25
sS'__reduce__'
p26
S'<built-in method __reduce__ of exceptions.TypeError object>'
p27
sS'__str__'
p28
S"<method-wrapper '__str__' of exceptions.TypeError object>"
p29
sS'__format__'
p30
S'<built-in method __format__ of exceptions.TypeError object>'
p31
sS'__getattribute__'
p32
S"<method-wrapper '__getattribute__' of exceptions.TypeError object>"
p33
sS'__class__'
p34
S"<type 'exceptions.TypeError'>"
p35
sS'__unicode__'
p36
S'<built-in method __unicode__ of exceptions.TypeError object>'
p37
sS'__delattr__'
p38
S"<method-wrapper '__delattr__' of exceptions.TypeError object>"
p39
sS'__subclasshook__'
p40
S'<built-in method __subclasshook__ of type object>'
p41
sS'__repr__'
p42
S"<method-wrapper '__repr__' of exceptions.TypeError object>"
p43
sS'__dict__'
p44
S'{}'
p45
sS'__sizeof__'
p46
S'<built-in method __sizeof__ of exceptions.TypeError object>'
p47
sS'__doc__'
p48
S"'Inappropriate argument type.'"
p49
sS'__init__'
p50
S"<method-wrapper '__init__' of exceptions.TypeError object>"
p51
sS'__new__'
p52
S'<built-in method __new__ of type object>'
p53
ssS'evalue'
p54
S'__call__() takes at least 2 arguments (1 given)'
p55
sS'request'
p56
cgluon.html
XML_unpickle
p57
(S's\x13S\x00\x00<div><table><tr><td style="font-weight:bold;vertical-align:top">ajax</td><td valign="top">:</td><td><div>False</div></td></tr><tr><td style="font-weight:bold;vertical-align:top">application</td><td valign="top">:</td><td><div>Project</div></td></tr><tr><td style="font-weight:bold;vertical-align:top">args</td><td valign="top">:</td><td><div><table><tr><td><div>Child_Plan</div></td></tr><tr><td><div>20</div></td></tr><tr><td><div>All</div></td></tr><tr><td><div>None</div></td></tr><tr><td><div>None</div></td></tr><tr><td><div>None</div></td></tr></table></div></td></tr><tr><td style="font-weight:bold;vertical-align:top">body</td><td valign="top">:</td><td><div>&lt;cStringIO.StringO object at 0x7f7ab82c0e68&gt;</div></td></tr><tr><td style="font-weight:bold;vertical-align:top">cid</td><td valign="top">:</td><td><div>None</div></td></tr><tr><td style="font-weight:bold;vertical-align:top">client</td><td valign="top">:</td><td><div>127.0.0.1</div></td></tr><tr><td style="font-weight:bold;vertical-align:top">controller</td><td valign="top">:</td><td><div>default</div></td></tr><tr><td style="font-weight:bold;vertical-align:top">cookies</td><td valign="top">:</td><td><div><table><tr><td style="font-weight:bold;vertical-align:top">session_id_admin</td><td valign="top">:</td><td><div>127.0.0.1-c2d8fab7-d3b1-4f59-85b1-de5ce4e4fd32<table><tr><td style="font-weight:bold;vertical-align:top">comment</td><td valign="top">:</td><td><div></div></td></tr><tr><td style="font-weight:bold;vertical-align:top">domain</td><td valign="top">:</td><td><div></div></td></tr><tr><td style="font-weight:bold;vertical-align:top">expires</td><td valign="top">:</td><td><div></div></td></tr><tr><td style="font-weight:bold;vertical-align:top">httponly</td><td valign="top">:</td><td><div></div></td></tr><tr><td style="font-weight:bold;vertical-align:top">max-age</td><td valign="top">:</td><td><div></div></td></tr><tr><td style="font-weight:bold;vertical-align:top">path</td><td valign="top">:</td><td><div></div></td></tr><tr><td style="font-weight:bold;vertical-align:top">secure</td><td valign="top">:</td><td><div></div></td></tr><tr><td style="font-weight:bold;vertical-align:top">version</td><td valign="top">:</td><td><div></div></td></tr></table></div></td></tr><tr><td style="font-weight:bold;vertical-align:top">session_id_project</td><td valign="top">:</td><td><div>127.0.0.1-07b4a589-7f8b-449a-a573-07d247c74093<table><tr><td style="font-weight:bold;vertical-align:top">comment</td><td valign="top">:</td><td><div></div></td></tr><tr><td style="font-weight:bold;vertical-align:top">domain</td><td valign="top">:</td><td><div></div></td></tr><tr><td style="font-weight:bold;vertical-align:top">expires</td><td valign="top">:</td><td><div></div></td></tr><tr><td style="font-weight:bold;vertical-align:top">httponly</td><td valign="top">:</td><td><div></div></td></tr><tr><td style="font-weight:bold;vertical-align:top">max-age</td><td valign="top">:</td><td><div></div></td></tr><tr><td style="font-weight:bold;vertical-align:top">path</td><td valign="top">:</td><td><div></div></td></tr><tr><td style="font-weight:bold;vertical-align:top">secure</td><td valign="top">:</td><td><div></div></td></tr><tr><td style="font-weight:bold;vertical-align:top">version</td><td valign="top">:</td><td><div></div></td></tr></table></div></td></tr></table></div></td></tr><tr><td style="font-weight:bold;vertical-align:top">env</td><td valign="top">:</td><td><div><table><tr><td style="font-weight:bold;vertical-align:top">app_folders</td><td valign="top">:</td><td><div>set([&#x27;/home/samfisher/iiith/Semester 2/web2py/applications/admin/&#x27;, &#x27;/home/samfisher/iiith/Semester 2/web2py/applications/Project/&#x27;])</div></td></tr><tr><td style="font-weight:bold;vertical-align:top">applications_parent</td><td valign="top">:</td><td><div>/home/samfisher/iiith/Semester 2/web2py</div></td></tr><tr><td style="font-weight:bold;vertical-align:top">cmd_args</td><td valign="top">:</td><td><div><table></table></div></td></tr><tr><td style="font-weight:bold;vertical-align:top">cmd_options</td><td valign="top">:</td><td><div>&lt;Values at 0x287d290: {&#x27;verbose&#x27;: False, &#x27;ip&#x27;: &#x27;127.0.0.1&#x27;, &#x27;with_scheduler&#x27;: False, &#x27;ips&#x27;: [], &#x27;shutdown_timeout&#x27;: 5, &#x27;taskbar&#x27;: False, &#x27;port&#x27;: 8000, &#x27;maxthreads&#x27;: None, &#x27;softcron&#x27;: False, &#x27;server_name&#x27;: &#x27;ubuntu&#x27;, &#x27;bpython&#x27;: False, &#x27;nogui&#x27;: False, &#x27;pid_filename&#x27;: &#x27;httpserver.pid&#x27;, &#x27;extcron&#x27;: False, &#x27;runcron&#x27;: False, &#x27;run_system_tests&#x27;: False, &#x27;test&#x27;: None, &#x27;folder&#x27;: &#x27;/home/samfisher/iiith/Semester 2/web2py&#x27;, &#x27;config&#x27;: &#x27;&#x27;, &#x27;minthreads&#x27;: None, &#x27;winservice&#x27;: &#x27;&#x27;, &#x27;shell&#x27;: None, &#x27;run&#x27;: &#x27;&#x27;, &#x27;log_filename&#x27;: &#x27;httpserver.log&#x27;, &#x27;debuglevel&#x27;: 30, &#x27;args&#x27;: [&#x27;&#x27;], &#x27;socket_timeout&#x27;: 5, &#x27;ssl_ca_certificate&#x27;: None, &#x27;scheduler&#x27;: None, &#x27;profiler_filename&#x27;: None, &#x27;ssl_private_key&#x27;: &#x27;&#x27;, &#x27;scheduler_groups&#x27;: None, &#x27;password&#x27;: &#x27;ani&#x27;, &#x27;request_queue_size&#x27;: 5, &#x27;ssl_certificate&#x27;: &#x27;&#x27;, &#x27;cronjob&#x27;: False, &#x27;numthreads&#x27;: None, &#x27;quiet&#x27;: False, &#x27;interfaces&#x27;: None, &#x27;import_models&#x27;: False, &#x27;timeout&#x27;: 10, &#x27;plain&#x27;: False, &#x27;nobanner&#x27;: False}&gt;</div></td></tr><tr><td style="font-weight:bold;vertical-align:top">db_sessions</td><td valign="top">:</td><td><div>set([])</div></td></tr><tr><td style="font-weight:bold;vertical-align:top">debugging</td><td valign="top">:</td><td><div>False</div></td></tr><tr><td style="font-weight:bold;vertical-align:top">gluon_parent</td><td valign="top">:</td><td><div>/home/samfisher/iiith/Semester 2/web2py</div></td></tr><tr><td style="font-weight:bold;vertical-align:top">http_accept</td><td valign="top">:</td><td><div>text/html,application/xhtml+xml,application/xml;q=0.9,image/webp,*/*;q=0.8</div></td></tr><tr><td style="font-weight:bold;vertical-align:top">http_accept_encoding</td><td valign="top">:</td><td><div>gzip,deflate,sdch</div></td></tr><tr><td style="font-weight:bold;vertical-align:top">http_accept_language</td><td valign="top">:</td><td><div>en-US,en;q=0.8</div></td></tr><tr><td style="font-weight:bold;vertical-align:top">http_cache_control</td><td valign="top">:</td><td><div>max-age=0</div></td></tr><tr><td style="font-weight:bold;vertical-align:top">http_connection</td><td valign="top">:</td><td><div>keep-alive</div></td></tr><tr><td style="font-weight:bold;vertical-align:top">http_cookie</td><td valign="top">:</td><td><div>session_id_admin=127.0.0.1-c2d8fab7-d3b1-4f59-85b1-de5ce4e4fd32; session_id_project=127.0.0.1-07b4a589-7f8b-449a-a573-07d247c74093</div></td></tr><tr><td style="font-weight:bold;vertical-align:top">http_host</td><td valign="top">:</td><td><div>127.0.0.1:8000</div></td></tr><tr><td style="font-weight:bold;vertical-align:top">http_referer</td><td valign="top">:</td><td><div>http://127.0.0.1:8000/Project/default/FilterPolicy</div></td></tr><tr><td style="font-weight:bold;vertical-align:top">http_user_agent</td><td valign="top">:</td><td><div>Mozilla/5.0 (X11; Linux x86_64) AppleWebKit/537.36 (KHTML, like Gecko) Chrome/31.0.1650.57 Safari/537.36</div></td></tr><tr><td style="font-weight:bold;vertical-align:top">is_jython</td><td valign="top">:</td><td><div>False</div></td></tr><tr><td style="font-weight:bold;vertical-align:top">is_pypy</td><td valign="top">:</td><td><div>False</div></td></tr><tr><td style="font-weight:bold;vertical-align:top">local_hosts</td><td valign="top">:</td><td><div><table><tr><td><div>::1</div></td></tr><tr><td><div>127.0.1.1</div></td></tr><tr><td><div>::ffff:127.0.0.1</div></td></tr><tr><td><div>127.0.0.1</div></td></tr><tr><td><div>ubuntu</div></td></tr></table></div></td></tr><tr><td style="font-weight:bold;vertical-align:top">path_info</td><td valign="top">:</td><td><div>/Project/default/ViewFilter/Child Plan/20/All/None/None/None</div></td></tr><tr><td style="font-weight:bold;vertical-align:top">query_string</td><td valign="top">:</td><td><div></div></td></tr><tr><td style="font-weight:bold;vertical-align:top">remote_addr</td><td valign="top">:</td><td><div>127.0.0.1</div></td></tr><tr><td style="font-weight:bold;vertical-align:top">remote_port</td><td valign="top">:</td><td><div>54674</div></td></tr><tr><td style="font-weight:bold;vertical-align:top">request_method</td><td valign="top">:</td><td><div>GET</div></td></tr><tr><td style="font-weight:bold;vertical-align:top">request_uri</td><td valign="top">:</td><td><div>/Project/default/ViewFilter/Child Plan/20/All/None/None/None</div></td></tr><tr><td style="font-weight:bold;vertical-align:top">script_name</td><td valign="top">:</td><td><div></div></td></tr><tr><td style="font-weight:bold;vertical-align:top">server_name</td><td valign="top">:</td><td><div>ubuntu</div></td></tr><tr><td style="font-weight:bold;vertical-align:top">server_port</td><td valign="top">:</td><td><div>8000</div></td></tr><tr><td style="font-weight:bold;vertical-align:top">server_protocol</td><td valign="top">:</td><td><div>HTTP/1.1</div></td></tr><tr><td style="font-weight:bold;vertical-align:top">server_software</td><td valign="top">:</td><td><div>Rocket 1.2.6</div></td></tr><tr><td style="font-weight:bold;vertical-align:top">web2py_path</td><td valign="top">:</td><td><div>/home/samfisher/iiith/Semester 2/web2py</div></td></tr><tr><td style="font-weight:bold;vertical-align:top">web2py_version</td><td valign="top">:</td><td><div><table><tr><td><div>2</div></td></tr><tr><td><div>4</div></td></tr><tr><td><div>2</div></td></tr><tr><td><div>stable</div></td></tr><tr><td><div>datetime.datetime(2013, 3, 4, 3, 26, 21)</div></td></tr></table></div></td></tr><tr><td style="font-weight:bold;vertical-align:top">wsgi_errors</td><td valign="top">:</td><td><div>&lt;open file &#x27;&lt;stderr&gt;&#x27;, mode &#x27;w&#x27; at 0x7f7ae5c541e0&gt;</div></td></tr><tr><td style="font-weight:bold;vertical-align:top">wsgi_file_wrapper</td><td valign="top">:</td><td><div>&lt;class wsgiref.util.FileWrapper at 0x27abce8&gt;</div></td></tr><tr><td style="font-weight:bold;vertical-align:top">wsgi_input</td><td valign="top">:</td><td><div>&lt;socket._fileobject object at 0x7f7ab82ff750&gt;</div></td></tr><tr><td style="font-weight:bold;vertical-align:top">wsgi_multiprocess</td><td valign="top">:</td><td><div>False</div></td></tr><tr><td style="font-weight:bold;vertical-align:top">wsgi_multithread</td><td valign="top">:</td><td><div>True</div></td></tr><tr><td style="font-weight:bold;vertical-align:top">wsgi_run_once</td><td valign="top">:</td><td><div>False</div></td></tr><tr><td style="font-weight:bold;vertical-align:top">wsgi_url_scheme</td><td valign="top">:</td><td><div>http</div></td></tr><tr><td style="font-weight:bold;vertical-align:top">wsgi_version</td><td valign="top">:</td><td><div><table><tr><td><div>1</div></td></tr><tr><td><div>0</div></td></tr></table></div></td></tr></table></div></td></tr><tr><td style="font-weight:bold;vertical-align:top">extension</td><td valign="top">:</td><td><div>html</div></td></tr><tr><td style="font-weight:bold;vertical-align:top">folder</td><td valign="top">:</td><td><div>/home/samfisher/iiith/Semester 2/web2py/applications/Project/</div></td></tr><tr><td style="font-weight:bold;vertical-align:top">function</td><td valign="top">:</td><td><div>ViewFilter</div></td></tr><tr><td style="font-weight:bold;vertical-align:top">get_vars</td><td valign="top">:</td><td><div><table></table></div></td></tr><tr><td style="font-weight:bold;vertical-align:top">global_settings</td><td valign="top">:</td><td><div><table><tr><td style="font-weight:bold;vertical-align:top">app_folders</td><td valign="top">:</td><td><div>set([&#x27;/home/samfisher/iiith/Semester 2/web2py/applications/admin/&#x27;, &#x27;/home/samfisher/iiith/Semester 2/web2py/applications/Project/&#x27;])</div></td></tr><tr><td style="font-weight:bold;vertical-align:top">applications_parent</td><td valign="top">:</td><td><div>/home/samfisher/iiith/Semester 2/web2py</div></td></tr><tr><td style="font-weight:bold;vertical-align:top">cmd_args</td><td valign="top">:</td><td><div><table></table></div></td></tr><tr><td style="font-weight:bold;vertical-align:top">cmd_options</td><td valign="top">:</td><td><div>&lt;Values at 0x287d290: {&#x27;verbose&#x27;: False, &#x27;ip&#x27;: &#x27;127.0.0.1&#x27;, &#x27;with_scheduler&#x27;: False, &#x27;ips&#x27;: [], &#x27;shutdown_timeout&#x27;: 5, &#x27;taskbar&#x27;: False, &#x27;port&#x27;: 8000, &#x27;maxthreads&#x27;: None, &#x27;softcron&#x27;: False, &#x27;server_name&#x27;: &#x27;ubuntu&#x27;, &#x27;bpython&#x27;: False, &#x27;nogui&#x27;: False, &#x27;pid_filename&#x27;: &#x27;httpserver.pid&#x27;, &#x27;extcron&#x27;: False, &#x27;runcron&#x27;: False, &#x27;run_system_tests&#x27;: False, &#x27;test&#x27;: None, &#x27;folder&#x27;: &#x27;/home/samfisher/iiith/Semester 2/web2py&#x27;, &#x27;config&#x27;: &#x27;&#x27;, &#x27;minthreads&#x27;: None, &#x27;winservice&#x27;: &#x27;&#x27;, &#x27;shell&#x27;: None, &#x27;run&#x27;: &#x27;&#x27;, &#x27;log_filename&#x27;: &#x27;httpserver.log&#x27;, &#x27;debuglevel&#x27;: 30, &#x27;args&#x27;: [&#x27;&#x27;], &#x27;socket_timeout&#x27;: 5, &#x27;ssl_ca_certificate&#x27;: None, &#x27;scheduler&#x27;: None, &#x27;profiler_filename&#x27;: None, &#x27;ssl_private_key&#x27;: &#x27;&#x27;, &#x27;scheduler_groups&#x27;: None, &#x27;password&#x27;: &#x27;ani&#x27;, &#x27;request_queue_size&#x27;: 5, &#x27;ssl_certificate&#x27;: &#x27;&#x27;, &#x27;cronjob&#x27;: False, &#x27;numthreads&#x27;: None, &#x27;quiet&#x27;: False, &#x27;interfaces&#x27;: None, &#x27;import_models&#x27;: False, &#x27;timeout&#x27;: 10, &#x27;plain&#x27;: False, &#x27;nobanner&#x27;: False}&gt;</div></td></tr><tr><td style="font-weight:bold;vertical-align:top">db_sessions</td><td valign="top">:</td><td><div>set([])</div></td></tr><tr><td style="font-weight:bold;vertical-align:top">debugging</td><td valign="top">:</td><td><div>False</div></td></tr><tr><td style="font-weight:bold;vertical-align:top">gluon_parent</td><td valign="top">:</td><td><div>/home/samfisher/iiith/Semester 2/web2py</div></td></tr><tr><td style="font-weight:bold;vertical-align:top">is_jython</td><td valign="top">:</td><td><div>False</div></td></tr><tr><td style="font-weight:bold;vertical-align:top">is_pypy</td><td valign="top">:</td><td><div>False</div></td></tr><tr><td style="font-weight:bold;vertical-align:top">local_hosts</td><td valign="top">:</td><td><div><table><tr><td><div>::1</div></td></tr><tr><td><div>127.0.1.1</div></td></tr><tr><td><div>::ffff:127.0.0.1</div></td></tr><tr><td><div>127.0.0.1</div></td></tr><tr><td><div>ubuntu</div></td></tr></table></div></td></tr><tr><td style="font-weight:bold;vertical-align:top">web2py_version</td><td valign="top">:</td><td><div><table><tr><td><div>2</div></td></tr><tr><td><div>4</div></td></tr><tr><td><div>2</div></td></tr><tr><td><div>stable</div></td></tr><tr><td><div>datetime.datetime(2013, 3, 4, 3, 26, 21)</div></td></tr></table></div></td></tr></table></div></td></tr><tr><td style="font-weight:bold;vertical-align:top">is_https</td><td valign="top">:</td><td><div>False</div></td></tr><tr><td style="font-weight:bold;vertical-align:top">is_local</td><td valign="top">:</td><td><div>True</div></td></tr><tr><td style="font-weight:bold;vertical-align:top">is_restful</td><td valign="top">:</td><td><div>False</div></td></tr><tr><td style="font-weight:bold;vertical-align:top">now</td><td valign="top">:</td><td><div>datetime.datetime(2013, 12, 1, 21, 57, 53, 73010)</div></td></tr><tr><td style="font-weight:bold;vertical-align:top">post_vars</td><td valign="top">:</td><td><div><table></table></div></td></tr><tr><td style="font-weight:bold;vertical-align:top">raw_args</td><td valign="top">:</td><td><div>Child_Plan/20/All/None/None/None</div></td></tr><tr><td style="font-weight:bold;vertical-align:top">raw_extension</td><td valign="top">:</td><td><div>None</div></td></tr><tr><td style="font-weight:bold;vertical-align:top">url</td><td valign="top">:</td><td><div>/Project/default/ViewFilter/Child Plan/20/All/None/None/None</div></td></tr><tr><td style="font-weight:bold;vertical-align:top">utcnow</td><td valign="top">:</td><td><div>datetime.datetime(2013, 12, 1, 16, 27, 53, 73061)</div></td></tr><tr><td style="font-weight:bold;vertical-align:top">uuid</td><td valign="top">:</td><td><div>Project/127.0.0.1.2013-12-01.21-57-53.00909acf-0f87-4148-871d-ebb4a7afdf19</div></td></tr><tr><td style="font-weight:bold;vertical-align:top">vars</td><td valign="top">:</td><td><div><table></table></div></td></tr><tr><td style="font-weight:bold;vertical-align:top">wsgi</td><td valign="top">:</td><td><div><table><tr><td style="font-weight:bold;vertical-align:top">environ</td><td valign="top">:</td><td><div><table><tr><td style="font-weight:bold;vertical-align:top">HTTP_ACCEPT</td><td valign="top">:</td><td><div>text/html,application/xhtml+xml,application/xml;q=0.9,image/webp,*/*;q=0.8</div></td></tr><tr><td style="font-weight:bold;vertical-align:top">HTTP_ACCEPT_ENCODING</td><td valign="top">:</td><td><div>gzip,deflate,sdch</div></td></tr><tr><td style="font-weight:bold;vertical-align:top">HTTP_ACCEPT_LANGUAGE</td><td valign="top">:</td><td><div>en-US,en;q=0.8</div></td></tr><tr><td style="font-weight:bold;vertical-align:top">HTTP_CACHE_CONTROL</td><td valign="top">:</td><td><div>max-age=0</div></td></tr><tr><td style="font-weight:bold;vertical-align:top">HTTP_CONNECTION</td><td valign="top">:</td><td><div>keep-alive</div></td></tr><tr><td style="font-weight:bold;vertical-align:top">HTTP_COOKIE</td><td valign="top">:</td><td><div>session_id_admin=127.0.0.1-c2d8fab7-d3b1-4f59-85b1-de5ce4e4fd32; session_id_project=127.0.0.1-07b4a589-7f8b-449a-a573-07d247c74093</div></td></tr><tr><td style="font-weight:bold;vertical-align:top">HTTP_HOST</td><td valign="top">:</td><td><div>127.0.0.1:8000</div></td></tr><tr><td style="font-weight:bold;vertical-align:top">HTTP_REFERER</td><td valign="top">:</td><td><div>http://127.0.0.1:8000/Project/default/FilterPolicy</div></td></tr><tr><td style="font-weight:bold;vertical-align:top">HTTP_USER_AGENT</td><td valign="top">:</td><td><div>Mozilla/5.0 (X11; Linux x86_64) AppleWebKit/537.36 (KHTML, like Gecko) Chrome/31.0.1650.57 Safari/537.36</div></td></tr><tr><td style="font-weight:bold;vertical-align:top">PATH_INFO</td><td valign="top">:</td><td><div>/Project/default/ViewFilter/Child Plan/20/All/None/None/None</div></td></tr><tr><td style="font-weight:bold;vertical-align:top">QUERY_STRING</td><td valign="top">:</td><td><div></div></td></tr><tr><td style="font-weight:bold;vertical-align:top">REMOTE_ADDR</td><td valign="top">:</td><td><div>127.0.0.1</div></td></tr><tr><td style="font-weight:bold;vertical-align:top">REMOTE_PORT</td><td valign="top">:</td><td><div>54674</div></td></tr><tr><td style="font-weight:bold;vertical-align:top">REQUEST_METHOD</td><td valign="top">:</td><td><div>GET</div></td></tr><tr><td style="font-weight:bold;vertical-align:top">REQUEST_URI</td><td valign="top">:</td><td><div>/Project/default/ViewFilter/Child Plan/20/All/None/None/None</div></td></tr><tr><td style="font-weight:bold;vertical-align:top">SCRIPT_NAME</td><td valign="top">:</td><td><div></div></td></tr><tr><td style="font-weight:bold;vertical-align:top">SERVER_NAME</td><td valign="top">:</td><td><div>ubuntu</div></td></tr><tr><td style="font-weight:bold;vertical-align:top">SERVER_PORT</td><td valign="top">:</td><td><div>8000</div></td></tr><tr><td style="font-weight:bold;vertical-align:top">SERVER_PROTOCOL</td><td valign="top">:</td><td><div>HTTP/1.1</div></td></tr><tr><td style="font-weight:bold;vertical-align:top">SERVER_SOFTWARE</td><td valign="top">:</td><td><div>Rocket 1.2.6</div></td></tr><tr><td style="font-weight:bold;vertical-align:top">wsgi.errors</td><td valign="top">:</td><td><div>&lt;open file &#x27;&lt;stderr&gt;&#x27;, mode &#x27;w&#x27; at 0x7f7ae5c541e0&gt;</div></td></tr><tr><td style="font-weight:bold;vertical-align:top">wsgi.file_wrapper</td><td valign="top">:</td><td><div>&lt;class wsgiref.util.FileWrapper at 0x27abce8&gt;</div></td></tr><tr><td style="font-weight:bold;vertical-align:top">wsgi.input</td><td valign="top">:</td><td><div>&lt;cStringIO.StringO object at 0x7f7ab82c0e68&gt;</div></td></tr><tr><td style="font-weight:bold;vertical-align:top">wsgi.multiprocess</td><td valign="top">:</td><td><div>False</div></td></tr><tr><td style="font-weight:bold;vertical-align:top">wsgi.multithread</td><td valign="top">:</td><td><div>True</div></td></tr><tr><td style="font-weight:bold;vertical-align:top">wsgi.run_once</td><td valign="top">:</td><td><div>False</div></td></tr><tr><td style="font-weight:bold;vertical-align:top">wsgi.url_scheme</td><td valign="top">:</td><td><div>http</div></td></tr><tr><td style="font-weight:bold;vertical-align:top">wsgi.version</td><td valign="top">:</td><td><div>1</div></td></tr></table></div></td></tr></table></div></td></tr></table></div>'
tRp58
sS'frames'
p59
(lp60
(dp61
S'file'
p62
S'/home/samfisher/iiith/Semester 2/web2py/gluon/restricted.py'
p63
sS'dump'
p64
(dp65
S'environment'
p66
S"{'A': <class 'gluon.html.A'>, 'AddCompany': <function AddCompany>, 'Auth': <class 'gluon.tools.Auth'>, 'B': <class 'gluon.html.B'>, 'BEAUTIFY': <class 'gluon.html.BEAUTIFY'>, 'BODY': <class 'gluon.html.BODY'>, 'BR': <class 'gluon.html.BR'>, 'BUTTON': <class 'gluon.html.BUTTON'>, 'CAT': <class 'gluon.html.CAT'>, 'CENTER': <class 'gluon.html.CENTER'>, ...}"
p67
sS'ccode'
p68
S'<code object <module> at 0x7f7ab83adf30, file "/...cations/Project/controllers/default.py", line 14>'
p69
ssS'lnum'
p70
I212
sS'lines'
p71
(dp72
I207
S'    try:'
p73
sI208
S'        if isinstance(code, types.CodeType):'
p74
sI209
S'            ccode = code'
p75
sI210
S'        else:'
p76
sI211
S'            ccode = compile2(code, layer)'
p77
sI212
S'        exec ccode in environment'
p78
sI213
S'    except HTTP:'
p79
sI214
S'        raise'
p80
sI215
S'    except RestrictedError:'
p81
sI216
S'        # do not encapsulate (obfuscate) the original RestrictedError'
p82
ssS'call'
p83
S"(code='# -*- coding: utf-8 -*-\\n# this file is released ...=a)\\n\\nresponse._vars=response._caller(ViewFilter)\\n', environment={'A': <class 'gluon.html.A'>, 'AddCompany': <function AddCompany>, 'Auth': <class 'gluon.tools.Auth'>, 'B': <class 'gluon.html.B'>, 'BEAUTIFY': <class 'gluon.html.BEAUTIFY'>, 'BODY': <class 'gluon.html.BODY'>, 'BR': <class 'gluon.html.BR'>, 'BUTTON': <class 'gluon.html.BUTTON'>, 'CAT': <class 'gluon.html.CAT'>, 'CENTER': <class 'gluon.html.CENTER'>, ...}, layer='/home/samfisher/iiith/Semester 2/web2py/applications/Project/controllers/default.py')"
p84
sS'func'
p85
S'restricted'
p86
sa(dp87
g62
S'/home/samfisher/iiith/Semester 2/web2py/applications/Project/controllers/default.py'
p88
sg64
(dp89
sg70
I472
sg71
(dp90
I461
S"\t\t\tField('Income','integer',requires=IS_IN_SET(('upto 3 lakhs','3-5 lakhs','5-10 lakhs','10+ lakhs','None')),default='None'))"
p91
sI462
S'\tif form.process().accepted:'
p92
sI463
S'\t\tprint form.vars'
p93
sI464
S''
sI465
S"\t\tredirect(URL(r=request,f='ViewFilter',args=(form.vars.Type,form.vars.Duration,form.vars.Company,form.vars.age,form.vars.cover,form.vars.Income)))"
p94
sI466
S'\treturn dict(form=form)'
p95
sI467
S'def ViewFilter():'
p96
sI468
S'\ta=list(request.args())'
p97
sI469
S'\tprint a'
p98
sI470
S'\treturn dict(a=a)'
p99
ssg83
S'()'
p100
sg85
S'<module>'
p101
sa(dp102
g62
S'/home/samfisher/iiith/Semester 2/web2py/gluon/globals.py'
p103
sg64
(dp104
S'self'
p105
S'undefined'
p106
sS'f'
S'<function ViewFilter>'
p107
ssg70
I193
sg71
(dp108
I192
S'        self._vars = None'
p109
sI193
S'        self._caller = lambda f: f()'
p110
sI194
S'        self._view_environment = None'
p111
sI195
S'        self._custom_commit = None'
p112
sI196
S'        self._custom_rollback = None'
p113
sI197
S''
sI188
S'        self.menu = []             # used by the default view layout'
p114
sI189
S'        self.files = []            # used by web2py_ajax.html'
p115
sI190
S'        self.generic_patterns = []  # patterns to allow generic views'
p116
sI191
S"        self.delimiters = ('{{', '}}')"
p117
ssg83
S'(f=<function ViewFilter>)'
p118
sg85
S'<lambda>'
p119
sa(dp120
g62
S'/home/samfisher/iiith/Semester 2/web2py/applications/Project/controllers/default.py'
p121
sg64
(dp122
S'a'
g106
sS'global request'
p123
S"<Storage {'function': 'ViewFilter', 'body': <cSt...plications/Project/', 'post_vars': <Storage {}>}>"
p124
sS'request.args'
p125
S"['Child_Plan', '20', 'All', 'None', 'None', 'None']"
p126
sS'builtinlist'
p127
S"<type 'list'>"
p128
ssg70
I468
sg71
(dp129
I461
S"\t\t\tField('Income','integer',requires=IS_IN_SET(('upto 3 lakhs','3-5 lakhs','5-10 lakhs','10+ lakhs','None')),default='None'))"
p130
sI462
S'\tif form.process().accepted:'
p131
sI463
S'\t\tprint form.vars'
p132
sI464
S''
sI465
S"\t\tredirect(URL(r=request,f='ViewFilter',args=(form.vars.Type,form.vars.Duration,form.vars.Company,form.vars.age,form.vars.cover,form.vars.Income)))"
p133
sI466
S'\treturn dict(form=form)'
p134
sI467
S'def ViewFilter():'
p135
sI468
S'\ta=list(request.args())'
p136
sI469
S'\tprint a'
p137
sI470
S'\treturn dict(a=a)'
p138
ssg83
S'()'
p139
sg85
S'ViewFilter'
p140
sasS'pyver'
p141
S'Python 2.7.5+: /usr/bin/python (prefix: /usr)'
p142
sS'session'
p143
g57
(S's\x1a\x00\x00\x00<div><table></table></div>'
tRp144
sS'etype'
p145
S"<type 'exceptions.TypeError'>"
p146
sS'date'
p147
S'Sun Dec  1 21:57:53 2013'
p148
sS'response'
p149
g57
(S's\xd0,\x00\x00<div><table><tr><td style="font-weight:bold;vertical-align:top">body</td><td valign="top">:</td><td><div>&lt;cStringIO.StringO object at 0x7f7ab8629df8&gt;</div></td></tr><tr><td style="font-weight:bold;vertical-align:top">cookies</td><td valign="top">:</td><td><div><table><tr><td style="font-weight:bold;vertical-align:top">session_id_project</td><td valign="top">:</td><td><div>127.0.0.1-07b4a589-7f8b-449a-a573-07d247c74093<table><tr><td style="font-weight:bold;vertical-align:top">comment</td><td valign="top">:</td><td><div></div></td></tr><tr><td style="font-weight:bold;vertical-align:top">domain</td><td valign="top">:</td><td><div></div></td></tr><tr><td style="font-weight:bold;vertical-align:top">expires</td><td valign="top">:</td><td><div></div></td></tr><tr><td style="font-weight:bold;vertical-align:top">httponly</td><td valign="top">:</td><td><div></div></td></tr><tr><td style="font-weight:bold;vertical-align:top">max-age</td><td valign="top">:</td><td><div></div></td></tr><tr><td style="font-weight:bold;vertical-align:top">path</td><td valign="top">:</td><td><div>/</div></td></tr><tr><td style="font-weight:bold;vertical-align:top">secure</td><td valign="top">:</td><td><div></div></td></tr><tr><td style="font-weight:bold;vertical-align:top">version</td><td valign="top">:</td><td><div></div></td></tr></table></div></td></tr></table></div></td></tr><tr><td style="font-weight:bold;vertical-align:top">delimiters</td><td valign="top">:</td><td><div><table><tr><td><div>{{</div></td></tr><tr><td><div>}}</div></td></tr></table></div></td></tr><tr><td style="font-weight:bold;vertical-align:top">files</td><td valign="top">:</td><td><div><table></table></div></td></tr><tr><td style="font-weight:bold;vertical-align:top">flash</td><td valign="top">:</td><td><div></div></td></tr><tr><td style="font-weight:bold;vertical-align:top">generic_patterns</td><td valign="top">:</td><td><div><table><tr><td><div>*</div></td></tr></table></div></td></tr><tr><td style="font-weight:bold;vertical-align:top">google_analytics_id</td><td valign="top">:</td><td><div>None</div></td></tr><tr><td style="font-weight:bold;vertical-align:top">headers</td><td valign="top">:</td><td><div><table><tr><td style="font-weight:bold;vertical-align:top">X-Powered-By</td><td valign="top">:</td><td><div>web2py</div></td></tr></table></div></td></tr><tr><td style="font-weight:bold;vertical-align:top">logo</td><td valign="top">:</td><td><div><a class="brand" href="http://www.web2py.com/"><b>web<span>2</span>py</b>&trade;&nbsp;</a></div></td></tr><tr><td style="font-weight:bold;vertical-align:top">menu</td><td valign="top">:</td><td><div><table><tr><td><div><table><tr><td><div>Home</div></td></tr><tr><td><div>False</div></td></tr><tr><td><div>/Project/default/index</div></td></tr><tr><td><div><table></table></div></td></tr></table></div></td></tr><tr><td><div><table><tr><td><div><span class="highlighted">web2py</span></div></td></tr><tr><td><div>False</div></td></tr><tr><td><div>http://web2py.com</div></td></tr><tr><td><div><table><tr><td><div><table><tr><td><div>My Sites</div></td></tr><tr><td><div>False</div></td></tr><tr><td><div>/admin/default/site</div></td></tr></table></div></td></tr><tr><td><div><table><tr><td><div>This App</div></td></tr><tr><td><div>False</div></td></tr><tr><td><div>/admin/default/design/Project</div></td></tr><tr><td><div>[(&lt;lazyT &#x27;Controller&#x27;&gt;, False, &#x27;/admin/default/edit/Project/controllers/default.py&#x27;), (&lt;lazyT &#x27;View&#x27;&gt;, False, &#x27;/admin/default/edit/Project/views/default/ViewFilter.html&#x27;), (&lt;lazyT &#x27;Layout&#x27;&gt;, False, &#x27;/admin/default/edit/Project/views/layout.html&#x27;), (&lt;lazyT &#x27;Stylesheet&#x27;&gt;, False, &#x27;/admin/default/edit/Project/static/css/web2py.css&#x27;), (&lt;lazyT &#x27;DB Model&#x27;&gt;, False, &#x27;/admin/default/edit/Project/models/db.py&#x27;), (&lt;lazyT &#x27;Menu Model&#x27;&gt;, False, &#x27;/admin/default/edit/Project/models/menu.py&#x27;), (&lt;lazyT &#x27;Database&#x27;&gt;, False, &#x27;/Project/appadmin/index&#x27;), (&lt;lazyT &#x27;Errors&#x27;&gt;, False, &#x27;/admin/default/errors/Project&#x27;), (&lt;lazyT &#x27;About&#x27;&gt;, False, &#x27;/admin/default/about/Project&#x27;)]</div></td></tr></table></div></td></tr><tr><td><div><table><tr><td><div>web2py.com</div></td></tr><tr><td><div>False</div></td></tr><tr><td><div>http://www.web2py.com</div></td></tr><tr><td><div>[(&lt;lazyT &#x27;Download&#x27;&gt;, False, &#x27;http://www.web2py.com/examples/default/download&#x27;), (&lt;lazyT &#x27;Support&#x27;&gt;, False, &#x27;http://www.web2py.com/examples/default/support&#x27;), (&lt;lazyT &#x27;Demo&#x27;&gt;, False, &#x27;http://web2py.com/demo_admin&#x27;), (&lt;lazyT &#x27;Quick Examples&#x27;&gt;, False, &#x27;http://web2py.com/examples/default/examples&#x27;), (&lt;lazyT &#x27;FAQ&#x27;&gt;, False, &#x27;http://web2py.com/AlterEgo&#x27;), (&lt;lazyT &#x27;Videos&#x27;&gt;, False, &#x27;http://www.web2py.com/examples/default/videos/&#x27;), (&lt;lazyT &#x27;Free Applications&#x27;&gt;, False, &#x27;http://web2py.com/appliances&#x27;), (&lt;lazyT &#x27;Plugins&#x27;&gt;, False, &#x27;http://web2py.com/plugins&#x27;), (&lt;lazyT &#x27;Layouts&#x27;&gt;, False, &#x27;http://web2py.com/layouts&#x27;), (&lt;lazyT &#x27;Recipes&#x27;&gt;, False, &#x27;http://web2pyslices.com/&#x27;), (&lt;lazyT &#x27;Semantic&#x27;&gt;, False, &#x27;http://web2py.com/semantic&#x27;)]</div></td></tr></table></div></td></tr><tr><td><div><table><tr><td><div>Documentation</div></td></tr><tr><td><div>False</div></td></tr><tr><td><div>http://www.web2py.com/book</div></td></tr><tr><td><div>[(&lt;lazyT &#x27;Preface&#x27;&gt;, False, &#x27;http://www.web2py.com/book/default/chapter/00&#x27;), (&lt;lazyT &#x27;Introduction&#x27;&gt;, False, &#x27;http://www.web2py.com/book/default/chapter/01&#x27;), (&lt;lazyT &#x27;Python&#x27;&gt;, False, &#x27;http://www.web2py.com/book/default/chapter/02&#x27;), (&lt;lazyT &#x27;Overview&#x27;&gt;, False, &#x27;http://www.web2py.com/book/default/chapter/03&#x27;), (&lt;lazyT &#x27;The Core&#x27;&gt;, False, &#x27;http://www.web2py.com/book/default/chapter/04&#x27;), (&lt;lazyT &#x27;The Views&#x27;&gt;, False, &#x27;http://www.web2py.com/book/default/chapter/05&#x27;), (&lt;lazyT &#x27;Database&#x27;&gt;, False, &#x27;http://www.web2py.com/book/default/chapter/06&#x27;), (&lt;lazyT &#x27;Forms and Validators&#x27;&gt;, False, &#x27;http://www.web2py.com/book/default/chapter/07&#x27;), (&lt;lazyT &#x27;Email and SMS&#x27;&gt;, False, &#x27;http://www.web2py.com/book/default/chapter/08&#x27;), (&lt;lazyT &#x27;Access Control&#x27;&gt;, False, &#x27;http://www.web2py.com/book/default/chapter/09&#x27;), (&lt;lazyT &#x27;Services&#x27;&gt;, False, &#x27;http://www.web2py.com/book/default/chapter/10&#x27;), (&lt;lazyT &#x27;Ajax Recipes&#x27;&gt;, False, &#x27;http://www.web2py.com/book/default/chapter/11&#x27;), (&lt;lazyT &#x27;Components and Plugins&#x27;&gt;, False, &#x27;http://www.web2py.com/book/default/chapter/12&#x27;), (&lt;lazyT &#x27;Deployment Recipes&#x27;&gt;, False, &#x27;http://www.web2py.com/book/default/chapter/13&#x27;), (&lt;lazyT &#x27;Other Recipes&#x27;&gt;, False, &#x27;http://www.web2py.com/book/default/chapter/14&#x27;), (&lt;lazyT &#x27;Buy this book&#x27;&gt;, False, &#x27;http://stores.lulu.com/web2py&#x27;)]</div></td></tr></table></div></td></tr><tr><td><div><table><tr><td><div>Community</div></td></tr><tr><td><div>False</div></td></tr><tr><td><div>None</div></td></tr><tr><td><div>[(&lt;lazyT &#x27;Groups&#x27;&gt;, False, &#x27;http://www.web2py.com/examples/default/usergroups&#x27;), (&lt;lazyT &#x27;Twitter&#x27;&gt;, False, &#x27;http://twitter.com/web2py&#x27;), (&lt;lazyT &#x27;Live Chat&#x27;&gt;, False, &#x27;http://webchat.freenode.net/?channels=web2py&#x27;)]</div></td></tr></table></div></td></tr><tr><td><div><table><tr><td><div>Plugins</div></td></tr><tr><td><div>False</div></td></tr><tr><td><div>None</div></td></tr><tr><td><div>[(&#x27;plugin_wiki&#x27;, False, &#x27;http://web2py.com/examples/default/download&#x27;), (&lt;lazyT &#x27;Other Plugins&#x27;&gt;, False, &#x27;http://web2py.com/plugins&#x27;), (&lt;lazyT &#x27;Layout Plugins&#x27;&gt;, False, &#x27;http://web2py.com/layouts&#x27;)]</div></td></tr></table></div></td></tr></table></div></td></tr></table></div></td></tr></table></div></td></tr><tr><td style="font-weight:bold;vertical-align:top">meta</td><td valign="top">:</td><td><div><table><tr><td style="font-weight:bold;vertical-align:top">author</td><td valign="top">:</td><td><div>Your Name &lt;you@example.com&gt;</div></td></tr><tr><td style="font-weight:bold;vertical-align:top">description</td><td valign="top">:</td><td><div>a cool new app</div></td></tr><tr><td style="font-weight:bold;vertical-align:top">generator</td><td valign="top">:</td><td><div>Web2py Web Framework</div></td></tr><tr><td style="font-weight:bold;vertical-align:top">keywords</td><td valign="top">:</td><td><div>web2py, python, framework</div></td></tr></table></div></td></tr><tr><td style="font-weight:bold;vertical-align:top">models_to_run</td><td valign="top">:</td><td><div><table><tr><td><div>^\\w+\\.py$</div></td></tr><tr><td><div>^default/\\w+\\.py$</div></td></tr><tr><td><div>^default/ViewFilter/\\w+\\.py$</div></td></tr></table></div></td></tr><tr><td style="font-weight:bold;vertical-align:top">postprocessing</td><td valign="top">:</td><td><div><table></table></div></td></tr><tr><td style="font-weight:bold;vertical-align:top">session_cookie_expires</td><td valign="top">:</td><td><div>None</div></td></tr><tr><td style="font-weight:bold;vertical-align:top">session_data_name</td><td valign="top">:</td><td><div>session_data_project</div></td></tr><tr><td style="font-weight:bold;vertical-align:top">session_file</td><td valign="top">:</td><td><div>&lt;open file &#x27;/home/samfisher/iiith/Semester 2/web2py/applications/Project/sessions/127.0.0.1-07b4a589-7f8b-449a-a573-07d247c74093&#x27;, mode &#x27;rb+&#x27; at 0x7f7ab82c3c00&gt;</div></td></tr><tr><td style="font-weight:bold;vertical-align:top">session_filename</td><td valign="top">:</td><td><div>/home/samfisher/iiith/Semester 2/web2py/applications/Project/sessions/127.0.0.1-07b4a589-7f8b-449a-a573-07d247c74093</div></td></tr><tr><td style="font-weight:bold;vertical-align:top">session_id</td><td valign="top">:</td><td><div>127.0.0.1-07b4a589-7f8b-449a-a573-07d247c74093</div></td></tr><tr><td style="font-weight:bold;vertical-align:top">session_id_name</td><td valign="top">:</td><td><div>session_id_project</div></td></tr><tr><td style="font-weight:bold;vertical-align:top">session_locked</td><td valign="top">:</td><td><div>True</div></td></tr><tr><td style="font-weight:bold;vertical-align:top">session_new</td><td valign="top">:</td><td><div>False</div></td></tr><tr><td style="font-weight:bold;vertical-align:top">session_storage_type</td><td valign="top">:</td><td><div>file</div></td></tr><tr><td style="font-weight:bold;vertical-align:top">status</td><td valign="top">:</td><td><div>200</div></td></tr><tr><td style="font-weight:bold;vertical-align:top">subtitle</td><td valign="top">:</td><td><div>customize me!</div></td></tr><tr><td style="font-weight:bold;vertical-align:top">title</td><td valign="top">:</td><td><div>Project</div></td></tr><tr><td style="font-weight:bold;vertical-align:top">view</td><td valign="top">:</td><td><div>default/ViewFilter.html</div></td></tr></table></div>'
tRp150
sS'locals'
p151
(dp152
ssS'traceback'
p153
S'Traceback (most recent call last):\n  File "/home/samfisher/iiith/Semester 2/web2py/gluon/restricted.py", line 212, in restricted\n    exec ccode in environment\n  File "/home/samfisher/iiith/Semester 2/web2py/applications/Project/controllers/default.py", line 472, in <module>\n  File "/home/samfisher/iiith/Semester 2/web2py/gluon/globals.py", line 193, in <lambda>\n    self._caller = lambda f: f()\n  File "/home/samfisher/iiith/Semester 2/web2py/applications/Project/controllers/default.py", line 468, in ViewFilter\n    a=list(request.args())\nTypeError: __call__() takes at least 2 arguments (1 given)\n'
p154
s.